target datalayout = "e-m:e-p270:32:32-p271:32:32-p272:64:64-i64:64-i128:128-f80:128-n8:16:32:64-S128"
target triple = "x86_64-pc-linux-gnu"

%struct.s_mmbuffer = type { ptr, i64 }

; Function Attrs: nounwind uwtable
define internal i32 @outf(ptr noundef %0, ptr noundef %1, i32 noundef %2) #0 {
  %4 = alloca i32, align 4
  %5 = alloca ptr, align 8
  %6 = alloca ptr, align 8
  %7 = alloca i32, align 4
  %8 = alloca i32, align 4
  %9 = alloca i32, align 4
  store ptr %0, ptr %5, align 8, !tbaa !33
  store ptr %1, ptr %6, align 8, !tbaa !48
  store i32 %2, ptr %7, align 4, !tbaa !4
  call void @llvm.lifetime.start.p0(i64 4, ptr %8) #9
  store i32 0, ptr %8, align 4, !tbaa !4
  br label %10

10:                                               ; preds = %31, %3
  %11 = load i32, ptr %8, align 4, !tbaa !4
  %12 = load i32, ptr %7, align 4, !tbaa !4
  %13 = icmp slt i32 %11, %12
  br i1 %13, label %14, label %34

14:                                               ; preds = %10
  %15 = load ptr, ptr %6, align 8, !tbaa !48
  %16 = load i32, ptr %8, align 4, !tbaa !4
  %17 = sext i32 %16 to i64
  %18 = getelementptr inbounds %struct.s_mmbuffer, ptr %15, i64 %17
  %19 = getelementptr inbounds nuw %struct.s_mmbuffer, ptr %18, i32 0, i32 0
  %20 = load ptr, ptr %19, align 8, !tbaa !50
  %21 = load ptr, ptr %6, align 8, !tbaa !48
  %22 = load i32, ptr %8, align 4, !tbaa !4
  %23 = sext i32 %22 to i64
  %24 = getelementptr inbounds %struct.s_mmbuffer, ptr %21, i64 %23
  %25 = getelementptr inbounds nuw %struct.s_mmbuffer, ptr %24, i32 0, i32 1
  %26 = load i64, ptr %25, align 8, !tbaa !52
  %27 = call i64 @write_in_full(i32 noundef 1, ptr noundef %20, i64 noundef %26)
  %28 = icmp slt i64 %27, 0
  br i1 %28, label %29, label %30

29:                                               ; preds = %14
  store i32 -1, ptr %4, align 4
  store i32 1, ptr %9, align 4
  br label %35

30:                                               ; preds = %14
  br label %31

31:                                               ; preds = %30
  %32 = load i32, ptr %8, align 4, !tbaa !4
  %33 = add nsw i32 %32, 1
  store i32 %33, ptr %8, align 4, !tbaa !4
  br label %10, !llvm.loop !53

34:                                               ; preds = %10
  store i32 0, ptr %4, align 4
  store i32 1, ptr %9, align 4
  br label %35

35:                                               ; preds = %34, %29
  call void @llvm.lifetime.end.p0(i64 4, ptr %8) #9
  %36 = load i32, ptr %4, align 4
  ret i32 %36
}