; Function Attrs: nounwind uwtable
define internal range(i32 -1, 1) i32 @outf(ptr readnone captures(none) %0, ptr noundef readonly captures(none) %1, i32 noundef %2) #0 {
  %4 = icmp sgt i32 %2, 0
  br i1 %4, label %.lr.ph.preheader, label %._crit_edge

.lr.ph.preheader:                                 ; preds = %3
  %wide.trip.count = zext nneg i32 %2 to i64
  br label %.lr.ph

5:                                                ; preds = %.lr.ph
  %indvars.iv.next = add nuw nsw i64 %indvars.iv, 1
  %exitcond.not = icmp eq i64 %indvars.iv.next, %wide.trip.count
  br i1 %exitcond.not, label %._crit_edge, label %.lr.ph, !llvm.loop !40

.lr.ph:                                           ; preds = %.lr.ph.preheader, %5
  %indvars.iv = phi i64 [ 0, %.lr.ph.preheader ], [ %indvars.iv.next, %5 ]
  %6 = getelementptr inbounds nuw %struct.s_mmbuffer, ptr %1, i64 %indvars.iv
  %7 = load ptr, ptr %6, align 8, !tbaa !41
  %8 = getelementptr inbounds nuw i8, ptr %6, i64 8
  %9 = load i64, ptr %8, align 8, !tbaa !43
  %10 = tail call i64 @write_in_full(i32 noundef 1, ptr noundef %7, i64 noundef %9) #12
  %11 = icmp slt i64 %10, 0
  br i1 %11, label %._crit_edge, label %5

._crit_edge:                                      ; preds = %.lr.ph, %5, %3
  %.07 = phi i32 [ 0, %3 ], [ 0, %5 ], [ -1, %.lr.ph ]
  ret i32 %.07
}